target datalayout = "e-m:e-p270:32:32-p271:32:32-p272:64:64-i64:64-i128:128-f80:128-n8:16:32:64-S128"
target triple = "x86_64-pc-linux-gnu"

%struct.opj_poc = type { i32, i32, i32, i32, i32, i32, i32, i32, i32, i32, [5 x i8], i32, i32, i32, i32, i32, i32, i32, i32, i32, i32, i32, i32, i32, i32, i32, i32, i32, i32, i32, i32, i32, i32, i32, i32, i32 }
%struct.opj_pi_iterator = type { i8, ptr, i32, i32, i32, i32, i32, i32, i32, i32, i32, i32, %struct.opj_poc, i32, ptr, i32, i32, i32, i32, i32, i32, i32, i32, ptr }
%struct.opj_pi_comp = type { i32, i32, i32, ptr }

; Function Attrs: nounwind uwtable
define hidden void @opj_pi_destroy(ptr noundef %0, i32 noundef %1) #0 {
  %3 = alloca ptr, align 8
  %4 = alloca i32, align 4
  %5 = alloca i32, align 4
  %6 = alloca i32, align 4
  %7 = alloca ptr, align 8
  %8 = alloca ptr, align 8
  store ptr %0, ptr %3, align 8, !tbaa !18
  store i32 %1, ptr %4, align 4, !tbaa !10
  call void @llvm.lifetime.start.p0(i64 4, ptr %5) #4
  call void @llvm.lifetime.start.p0(i64 4, ptr %6) #4
  call void @llvm.lifetime.start.p0(i64 8, ptr %7) #4
  %9 = load ptr, ptr %3, align 8, !tbaa !18
  store ptr %9, ptr %7, align 8, !tbaa !18
  %10 = load ptr, ptr %3, align 8, !tbaa !18
  %11 = icmp ne ptr %10, null
  br i1 %11, label %12, label %74

12:                                               ; preds = %2
  %13 = load ptr, ptr %3, align 8, !tbaa !18
  %14 = getelementptr inbounds nuw %struct.opj_pi_iterator, ptr %13, i32 0, i32 1
  %15 = load ptr, ptr %14, align 8, !tbaa !44
  %16 = icmp ne ptr %15, null
  br i1 %16, label %17, label %23

17:                                               ; preds = %12
  %18 = load ptr, ptr %3, align 8, !tbaa !18
  %19 = getelementptr inbounds nuw %struct.opj_pi_iterator, ptr %18, i32 0, i32 1
  %20 = load ptr, ptr %19, align 8, !tbaa !44
  call void @opj_free(ptr noundef %20)
  %21 = load ptr, ptr %3, align 8, !tbaa !18
  %22 = getelementptr inbounds nuw %struct.opj_pi_iterator, ptr %21, i32 0, i32 1
  store ptr null, ptr %22, align 8, !tbaa !44
  br label %23

23:                                               ; preds = %17, %12
  store i32 0, ptr %6, align 4, !tbaa !10
  br label %24

24:                                               ; preds = %69, %23
  %25 = load i32, ptr %6, align 4, !tbaa !10
  %26 = load i32, ptr %4, align 4, !tbaa !10
  %27 = icmp ult i32 %25, %26
  br i1 %27, label %28, label %72

28:                                               ; preds = %24
  %29 = load ptr, ptr %7, align 8, !tbaa !18
  %30 = getelementptr inbounds nuw %struct.opj_pi_iterator, ptr %29, i32 0, i32 14
  %31 = load ptr, ptr %30, align 8, !tbaa !50
  %32 = icmp ne ptr %31, null
  br i1 %32, label %33, label %66

33:                                               ; preds = %28
  call void @llvm.lifetime.start.p0(i64 8, ptr %8) #4
  %34 = load ptr, ptr %7, align 8, !tbaa !18
  %35 = getelementptr inbounds nuw %struct.opj_pi_iterator, ptr %34, i32 0, i32 14
  %36 = load ptr, ptr %35, align 8, !tbaa !50
  store ptr %36, ptr %8, align 8, !tbaa !24
  store i32 0, ptr %5, align 4, !tbaa !10
  br label %37

37:                                               ; preds = %57, %33
  %38 = load i32, ptr %5, align 4, !tbaa !10
  %39 = load ptr, ptr %7, align 8, !tbaa !18
  %40 = getelementptr inbounds nuw %struct.opj_pi_iterator, ptr %39, i32 0, i32 13
  %41 = load i32, ptr %40, align 4, !tbaa !82
  %42 = icmp ult i32 %38, %41
  br i1 %42, label %43, label %60

43:                                               ; preds = %37
  %44 = load ptr, ptr %8, align 8, !tbaa !24
  %45 = getelementptr inbounds nuw %struct.opj_pi_comp, ptr %44, i32 0, i32 3
  %46 = load ptr, ptr %45, align 8, !tbaa !61
  %47 = icmp ne ptr %46, null
  br i1 %47, label %48, label %54

48:                                               ; preds = %43
  %49 = load ptr, ptr %8, align 8, !tbaa !24
  %50 = getelementptr inbounds nuw %struct.opj_pi_comp, ptr %49, i32 0, i32 3
  %51 = load ptr, ptr %50, align 8, !tbaa !61
  call void @opj_free(ptr noundef %51)
  %52 = load ptr, ptr %8, align 8, !tbaa !24
  %53 = getelementptr inbounds nuw %struct.opj_pi_comp, ptr %52, i32 0, i32 3
  store ptr null, ptr %53, align 8, !tbaa !61
  br label %54

54:                                               ; preds = %48, %43
  %55 = load ptr, ptr %8, align 8, !tbaa !24
  %56 = getelementptr inbounds nuw %struct.opj_pi_comp, ptr %55, i32 1
  store ptr %56, ptr %8, align 8, !tbaa !24
  br label %57

57:                                               ; preds = %54
  %58 = load i32, ptr %5, align 4, !tbaa !10
  %59 = add i32 %58, 1
  store i32 %59, ptr %5, align 4, !tbaa !10
  br label %37, !llvm.loop !98

60:                                               ; preds = %37
  %61 = load ptr, ptr %7, align 8, !tbaa !18
  %62 = getelementptr inbounds nuw %struct.opj_pi_iterator, ptr %61, i32 0, i32 14
  %63 = load ptr, ptr %62, align 8, !tbaa !50
  call void @opj_free(ptr noundef %63)
  %64 = load ptr, ptr %7, align 8, !tbaa !18
  %65 = getelementptr inbounds nuw %struct.opj_pi_iterator, ptr %64, i32 0, i32 14
  store ptr null, ptr %65, align 8, !tbaa !50
  call void @llvm.lifetime.end.p0(i64 8, ptr %8) #4
  br label %66

66:                                               ; preds = %60, %28
  %67 = load ptr, ptr %7, align 8, !tbaa !18
  %68 = getelementptr inbounds nuw %struct.opj_pi_iterator, ptr %67, i32 1
  store ptr %68, ptr %7, align 8, !tbaa !18
  br label %69

69:                                               ; preds = %66
  %70 = load i32, ptr %6, align 4, !tbaa !10
  %71 = add i32 %70, 1
  store i32 %71, ptr %6, align 4, !tbaa !10
  br label %24, !llvm.loop !99

72:                                               ; preds = %24
  %73 = load ptr, ptr %3, align 8, !tbaa !18
  call void @opj_free(ptr noundef %73)
  br label %74

74:                                               ; preds = %72, %2
  call void @llvm.lifetime.end.p0(i64 8, ptr %7) #4
  call void @llvm.lifetime.end.p0(i64 4, ptr %6) #4
  call void @llvm.lifetime.end.p0(i64 4, ptr %5) #4
  ret void
}