; Function Attrs: nounwind uwtable
define hidden void @opj_pi_destroy(ptr noundef %0, i32 noundef %1) local_unnamed_addr #0 {
  %.not = icmp eq ptr %0, null
  br i1 %.not, label %25, label %3

3:                                                ; preds = %2
  %4 = getelementptr inbounds nuw i8, ptr %0, i64 8
  %5 = load ptr, ptr %4, align 8, !tbaa !28
  %.not27 = icmp eq ptr %5, null
  br i1 %.not27, label %7, label %6

6:                                                ; preds = %3
  tail call void @opj_free(ptr noundef nonnull %5) #5
  store ptr null, ptr %4, align 8, !tbaa !28
  br label %7

7:                                                ; preds = %6, %3
  %.not37 = icmp eq i32 %1, 0
  br i1 %.not37, label %._crit_edge36, label %.lr.ph35

.lr.ph35:                                         ; preds = %7, %22
  %.02033 = phi ptr [ %23, %22 ], [ %0, %7 ]
  %.02132 = phi i32 [ %24, %22 ], [ 0, %7 ]
  %8 = getelementptr inbounds nuw i8, ptr %.02033, i64 208
  %9 = load ptr, ptr %8, align 8, !tbaa !36
  %.not28 = icmp eq ptr %9, null
  br i1 %.not28, label %22, label %.preheader

.preheader:                                       ; preds = %.lr.ph35
  %10 = getelementptr inbounds nuw i8, ptr %.02033, i64 204
  %11 = load i32, ptr %10, align 4, !tbaa !37
  %.not38 = icmp eq i32 %11, 0
  br i1 %.not38, label %._crit_edge, label %.lr.ph

.lr.ph:                                           ; preds = %.preheader, %16
  %12 = phi i32 [ %17, %16 ], [ %11, %.preheader ]
  %.031 = phi ptr [ %18, %16 ], [ %9, %.preheader ]
  %.02230 = phi i32 [ %19, %16 ], [ 0, %.preheader ]
  %13 = getelementptr inbounds nuw i8, ptr %.031, i64 16
  %14 = load ptr, ptr %13, align 8, !tbaa !38
  %.not29 = icmp eq ptr %14, null
  br i1 %.not29, label %16, label %15

15:                                               ; preds = %.lr.ph
  tail call void @opj_free(ptr noundef nonnull %14) #5
  store ptr null, ptr %13, align 8, !tbaa !38
  %.pre = load i32, ptr %10, align 4, !tbaa !37
  br label %16

16:                                               ; preds = %15, %.lr.ph
  %17 = phi i32 [ %.pre, %15 ], [ %12, %.lr.ph ]
  %18 = getelementptr inbounds nuw i8, ptr %.031, i64 24
  %19 = add nuw i32 %.02230, 1
  %20 = icmp ult i32 %19, %17
  br i1 %20, label %.lr.ph, label %._crit_edge.loopexit, !llvm.loop !41

._crit_edge.loopexit:                             ; preds = %16
  %.pre39 = load ptr, ptr %8, align 8, !tbaa !36
  br label %._crit_edge

._crit_edge:                                      ; preds = %._crit_edge.loopexit, %.preheader
  %21 = phi ptr [ %.pre39, %._crit_edge.loopexit ], [ %9, %.preheader ]
  tail call void @opj_free(ptr noundef %21) #5
  store ptr null, ptr %8, align 8, !tbaa !36
  br label %22

22:                                               ; preds = %._crit_edge, %.lr.ph35
  %23 = getelementptr inbounds nuw i8, ptr %.02033, i64 256
  %24 = add nuw i32 %.02132, 1
  %exitcond.not = icmp eq i32 %24, %1
  br i1 %exitcond.not, label %._crit_edge36, label %.lr.ph35, !llvm.loop !42

._crit_edge36:                                    ; preds = %22, %7
  tail call void @opj_free(ptr noundef nonnull %0) #5
  br label %25

25:                                               ; preds = %._crit_edge36, %2
  ret void
}